; Function Attrs: inlinehint nounwind uwtable
define internal fastcc zeroext i1 @lxb_html_tree_insertion_mode_in_body_button(ptr noundef %0, ptr noundef %1) unnamed_addr #3 {
  %3 = tail call ptr @lxb_html_tree_element_in_scope(ptr noundef %0, i64 noundef 33, i64 noundef 2, i32 noundef 8) #6
  %.not = icmp eq ptr %3, null
  br i1 %.not, label %5, label %4

4:                                                ; preds = %2
  tail call void @lxb_html_tree_parse_error(ptr noundef %0, ptr noundef %1, i32 noundef 0) #6
  tail call void @lxb_html_tree_generate_implied_end_tags(ptr noundef %0, i64 noundef 0, i64 noundef 0) #6
  tail call void @lxb_html_tree_open_elements_pop_until_tag_id(ptr noundef %0, i64 noundef 33, i64 noundef 2, i1 noundef zeroext true) #6
  br label %5

5:                                                ; preds = %4, %2
  %6 = tail call i32 @lxb_html_tree_active_formatting_reconstruct_elements(ptr noundef %0) #6
  %7 = getelementptr inbounds nuw i8, ptr %0, i64 112
  store i32 %6, ptr %7, align 8, !tbaa !22
  %.not17 = icmp eq i32 %6, 0
  br i1 %.not17, label %10, label %8

8:                                                ; preds = %5
  %9 = tail call zeroext i1 @lxb_html_tree_process_abort(ptr noundef nonnull %0) #6
  br label %17

10:                                               ; preds = %5
  %11 = tail call ptr @lxb_html_tree_insert_foreign_element(ptr noundef nonnull %0, ptr noundef %1, i64 noundef 2) #6
  %12 = icmp eq ptr %11, null
  br i1 %12, label %13, label %15

13:                                               ; preds = %10
  store i32 2, ptr %7, align 8, !tbaa !22
  %14 = tail call zeroext i1 @lxb_html_tree_process_abort(ptr noundef nonnull %0) #6
  br label %17

15:                                               ; preds = %10
  %16 = getelementptr inbounds nuw i8, ptr %0, i64 81
  store i8 0, ptr %16, align 1, !tbaa !25
  br label %17

17:                                               ; preds = %15, %13, %8
  %.0 = phi i1 [ %9, %8 ], [ %14, %13 ], [ true, %15 ]
  ret i1 %.0
}